target datalayout = "e-m:e-p270:32:32-p271:32:32-p272:64:64-i64:64-i128:128-f80:128-n8:16:32:64-S128"
target triple = "x86_64-pc-linux-gnu"

%"class.llvm::Type" = type { ptr, i32, i32, ptr }
%"class.llvm::APFloat" = type { [8 x i8], %"union.llvm::APFloat::Storage" }
%"union.llvm::APFloat::Storage" = type { %"class.llvm::detail::DoubleAPFloat", [8 x i8] }
%"class.llvm::detail::DoubleAPFloat" = type { ptr, %"class.std::unique_ptr" }
%"class.std::unique_ptr" = type { %"struct.std::__uniq_ptr_data" }
%"struct.std::__uniq_ptr_data" = type { %"class.std::__uniq_ptr_impl" }
%"class.std::__uniq_ptr_impl" = type { %"class.std::tuple" }
%"class.std::tuple" = type { %"struct.std::_Tuple_impl" }
%"struct.std::_Tuple_impl" = type { %"struct.std::_Head_base.41" }
%"struct.std::_Head_base.41" = type { ptr }
%"class.llvm::detail::IEEEFloat" = type <{ ptr, %"union.llvm::detail::IEEEFloat::Significand", i32, i8, [3 x i8] }>
%"union.llvm::detail::IEEEFloat::Significand" = type { i64 }

; Function Attrs: mustprogress nounwind uwtable
define linkonce_odr hidden noundef zeroext i1 @_ZN4llvm7APFloat10usesLayoutINS_6detail13DoubleAPFloatEEEbRKNS_12fltSemanticsE(ptr noundef nonnull align 1 %0) #0 comdat align 2 {
  %2 = alloca ptr, align 8
  store ptr %0, ptr %2, align 8
  %3 = load ptr, ptr %2, align 8
  %4 = call noundef nonnull align 1 ptr @_ZN4llvm11APFloatBase15PPCDoubleDoubleEv() #17
  %5 = icmp eq ptr %3, %4
  ret i1 %5
}

; Function Attrs: mustprogress nounwind uwtable
define linkonce_odr hidden noundef zeroext i1 @_ZN4llvm7APFloat10usesLayoutINS_6detail9IEEEFloatEEEbRKNS_12fltSemanticsE(ptr noundef nonnull align 1 %0) #0 comdat align 2 {
  %2 = alloca ptr, align 8
  store ptr %0, ptr %2, align 8
  %3 = load ptr, ptr %2, align 8
  %4 = call noundef nonnull align 1 ptr @_ZN4llvm11APFloatBase15PPCDoubleDoubleEv() #17
  %5 = icmp ne ptr %3, %4
  ret i1 %5
}

; Function Attrs: mustprogress nounwind uwtable
define linkonce_odr hidden void @_ZN4llvm7APFloat7StorageD2Ev(ptr noundef nonnull align 8 dereferenceable(24) %0) unnamed_addr #0 comdat align 2 {
  %2 = alloca ptr, align 8
  store ptr %0, ptr %2, align 8
  %3 = load ptr, ptr %2, align 8
  %4 = load ptr, ptr %3, align 8
  %5 = call noundef zeroext i1 @_ZN4llvm7APFloat10usesLayoutINS_6detail9IEEEFloatEEEbRKNS_12fltSemanticsE(ptr noundef nonnull align 1 %4)
  br i1 %5, label %6, label %7

6:                                                ; preds = %1
  call void @_ZN4llvm6detail9IEEEFloatD1Ev(ptr noundef nonnull align 8 dereferenceable(24) %3) #13
  br label %12

7:                                                ; preds = %1
  %8 = load ptr, ptr %3, align 8
  %9 = call noundef zeroext i1 @_ZN4llvm7APFloat10usesLayoutINS_6detail13DoubleAPFloatEEEbRKNS_12fltSemanticsE(ptr noundef nonnull align 1 %8)
  br i1 %9, label %10, label %11

10:                                               ; preds = %7
  call void @_ZN4llvm6detail13DoubleAPFloatD2Ev(ptr noundef nonnull align 8 dereferenceable(16) %3) #13
  br label %12

11:                                               ; preds = %7
  unreachable

12:                                               ; preds = %10, %6
  ret void
}

; Function Attrs: mustprogress nounwind uwtable
define linkonce_odr hidden noundef i32 @_ZNK4llvm4Type9getTypeIDEv(ptr noundef nonnull align 8 dereferenceable(24) %0) #0 comdat align 2 {
  %2 = alloca ptr, align 8
  store ptr %0, ptr %2, align 8
  %3 = load ptr, ptr %2, align 8
  %4 = getelementptr inbounds nuw %"class.llvm::Type", ptr %3, i32 0, i32 1
  %5 = load i32, ptr %4, align 8
  %6 = and i32 %5, 255
  ret i32 %6
}

; Function Attrs: mustprogress nounwind uwtable
define linkonce_odr hidden noundef zeroext i1 @_ZNK4llvm4Type10isDoubleTyEv(ptr noundef nonnull align 8 dereferenceable(24) %0) #0 comdat align 2 {
  %2 = alloca ptr, align 8
  store ptr %0, ptr %2, align 8
  %3 = load ptr, ptr %2, align 8
  %4 = call noundef i32 @_ZNK4llvm4Type9getTypeIDEv(ptr noundef nonnull align 8 dereferenceable(24) %3)
  %5 = icmp eq i32 %4, 3
  ret i1 %5
}

; Function Attrs: mustprogress nounwind uwtable
define linkonce_odr hidden void @_ZN4llvm7APFloatD2Ev(ptr noundef nonnull align 8 dereferenceable(32) %0) unnamed_addr #0 comdat align 2 {
  %2 = alloca ptr, align 8
  store ptr %0, ptr %2, align 8
  %3 = load ptr, ptr %2, align 8
  %4 = getelementptr inbounds nuw %"class.llvm::APFloat", ptr %3, i32 0, i32 1
  call void @_ZN4llvm7APFloat7StorageD2Ev(ptr noundef nonnull align 8 dereferenceable(24) %4) #13
  ret void
}

; Function Attrs: mustprogress nounwind uwtable
define linkonce_odr hidden noundef nonnull align 8 dereferenceable(8) ptr @_ZNK4llvm4Type10getContextEv(ptr noundef nonnull align 8 dereferenceable(24) %0) #0 comdat align 2 {
  %2 = alloca ptr, align 8
  store ptr %0, ptr %2, align 8
  %3 = load ptr, ptr %2, align 8
  %4 = getelementptr inbounds nuw %"class.llvm::Type", ptr %3, i32 0, i32 0
  %5 = load ptr, ptr %4, align 8
  ret ptr %5
}

; Function Attrs: mustprogress nounwind uwtable
define linkonce_odr hidden void @_ZN4llvm7APFloatC2Ed(ptr noundef nonnull align 8 dereferenceable(32) %0, double noundef %1) unnamed_addr #0 comdat align 2 {
  %3 = alloca ptr, align 8
  %4 = alloca double, align 8
  %5 = alloca %"class.llvm::detail::IEEEFloat", align 8
  store ptr %0, ptr %3, align 8
  store double %1, ptr %4, align 8
  %6 = load ptr, ptr %3, align 8
  %7 = getelementptr inbounds nuw %"class.llvm::APFloat", ptr %6, i32 0, i32 1
  %8 = load double, ptr %4, align 8
  call void @_ZN4llvm6detail9IEEEFloatC1Ed(ptr noundef nonnull align 8 dereferenceable(24) %5, double noundef %8)
  %9 = call noundef nonnull align 1 ptr @_ZN4llvm11APFloatBase10IEEEdoubleEv() #17
  call void @_ZN4llvm7APFloat7StorageC1ENS_6detail9IEEEFloatERKNS_12fltSemanticsE(ptr noundef nonnull align 8 dereferenceable(24) %7, ptr noundef %5, ptr noundef nonnull align 1 %9)
  call void @_ZN4llvm6detail9IEEEFloatD1Ev(ptr noundef nonnull align 8 dereferenceable(24) %5) #13
  ret void
}

; Function Attrs: mustprogress nounwind uwtable
define linkonce_odr hidden noundef zeroext i1 @_ZNK4llvm4Type9isFloatTyEv(ptr noundef nonnull align 8 dereferenceable(24) %0) #0 comdat align 2 {
  %2 = alloca ptr, align 8
  store ptr %0, ptr %2, align 8
  %3 = load ptr, ptr %2, align 8
  %4 = call noundef i32 @_ZNK4llvm4Type9getTypeIDEv(ptr noundef nonnull align 8 dereferenceable(24) %3)
  %5 = icmp eq i32 %4, 2
  ret i1 %5
}

; Function Attrs: mustprogress nounwind uwtable
define linkonce_odr hidden noundef zeroext i1 @_ZNK4llvm4Type8isHalfTyEv(ptr noundef nonnull align 8 dereferenceable(24) %0) #0 comdat align 2 {
  %2 = alloca ptr, align 8
  store ptr %0, ptr %2, align 8
  %3 = load ptr, ptr %2, align 8
  %4 = call noundef i32 @_ZNK4llvm4Type9getTypeIDEv(ptr noundef nonnull align 8 dereferenceable(24) %3)
  %5 = icmp eq i32 %4, 0
  ret i1 %5
}

; Function Attrs: mustprogress nounwind uwtable
define internal noundef ptr @_ZN12_GLOBAL__N_122GetConstantFoldFPValueEdPN4llvm4TypeE(double noundef %0, ptr noundef %1) #0 {
  %3 = alloca ptr, align 8
  %4 = alloca double, align 8
  %5 = alloca ptr, align 8
  %6 = alloca %"class.llvm::APFloat", align 8
  %7 = alloca i8, align 1
  %8 = alloca %"class.llvm::APFloat", align 8
  store double %0, ptr %4, align 8
  store ptr %1, ptr %5, align 8
  %9 = load ptr, ptr %5, align 8
  %10 = call noundef zeroext i1 @_ZNK4llvm4Type8isHalfTyEv(ptr noundef nonnull align 8 dereferenceable(24) %9)
  br i1 %10, label %14, label %11

11:                                               ; preds = %2
  %12 = load ptr, ptr %5, align 8
  %13 = call noundef zeroext i1 @_ZNK4llvm4Type9isFloatTyEv(ptr noundef nonnull align 8 dereferenceable(24) %12)
  br i1 %13, label %14, label %22

14:                                               ; preds = %11, %2
  %15 = load double, ptr %4, align 8
  call void @_ZN4llvm7APFloatC2Ed(ptr noundef nonnull align 8 dereferenceable(32) %6, double noundef %15)
  %16 = load ptr, ptr %5, align 8
  %17 = call noundef nonnull align 1 ptr @_ZNK4llvm4Type15getFltSemanticsEv(ptr noundef nonnull align 8 dereferenceable(24) %16)
  %18 = call noundef i32 @_ZN4llvm7APFloat7convertERKNS_12fltSemanticsENS_12RoundingModeEPb(ptr noundef nonnull align 8 dereferenceable(32) %6, ptr noundef nonnull align 1 %17, i8 noundef signext 1, ptr noundef %7)
  %19 = load ptr, ptr %5, align 8
  %20 = call noundef nonnull align 8 dereferenceable(8) ptr @_ZNK4llvm4Type10getContextEv(ptr noundef nonnull align 8 dereferenceable(24) %19)
  %21 = call noundef ptr @_ZN4llvm10ConstantFP3getERNS_11LLVMContextERKNS_7APFloatE(ptr noundef nonnull align 8 dereferenceable(8) %20, ptr noundef nonnull align 8 dereferenceable(32) %6)
  store ptr %21, ptr %3, align 8
  call void @_ZN4llvm7APFloatD2Ev(ptr noundef nonnull align 8 dereferenceable(32) %6) #13
  br label %31

22:                                               ; preds = %11
  %23 = load ptr, ptr %5, align 8
  %24 = call noundef zeroext i1 @_ZNK4llvm4Type10isDoubleTyEv(ptr noundef nonnull align 8 dereferenceable(24) %23)
  br i1 %24, label %25, label %30

25:                                               ; preds = %22
  %26 = load ptr, ptr %5, align 8
  %27 = call noundef nonnull align 8 dereferenceable(8) ptr @_ZNK4llvm4Type10getContextEv(ptr noundef nonnull align 8 dereferenceable(24) %26)
  %28 = load double, ptr %4, align 8
  call void @_ZN4llvm7APFloatC2Ed(ptr noundef nonnull align 8 dereferenceable(32) %8, double noundef %28)
  %29 = call noundef ptr @_ZN4llvm10ConstantFP3getERNS_11LLVMContextERKNS_7APFloatE(ptr noundef nonnull align 8 dereferenceable(8) %27, ptr noundef nonnull align 8 dereferenceable(32) %8)
  store ptr %29, ptr %3, align 8
  call void @_ZN4llvm7APFloatD2Ev(ptr noundef nonnull align 8 dereferenceable(32) %8) #13
  br label %31

30:                                               ; preds = %22
  unreachable

31:                                               ; preds = %25, %14
  %32 = load ptr, ptr %3, align 8
  ret ptr %32
}