; Function Attrs: mustprogress nounwind uwtable
define internal fastcc noundef ptr @_ZN12_GLOBAL__N_122GetConstantFoldFPValueEdPN4llvm4TypeE(double noundef %0, ptr noundef %1) unnamed_addr #0 {
  %3 = alloca %"class.llvm::detail::IEEEFloat", align 8
  %4 = alloca %"class.llvm::detail::IEEEFloat", align 8
  %5 = alloca %"class.llvm::APFloat", align 8
  %6 = alloca i8, align 1
  %7 = alloca %"class.llvm::APFloat", align 8
  %8 = getelementptr inbounds nuw i8, ptr %1, i64 8
  %9 = load i32, ptr %8, align 8
  %trunc = trunc i32 %9 to i8
  switch i8 %trunc, label %21 [
    i8 0, label %10
    i8 2, label %10
  ]

10:                                               ; preds = %2, %2
  call void @llvm.lifetime.start.p0(i64 24, ptr nonnull %4)
  %11 = getelementptr inbounds nuw i8, ptr %5, i64 8
  call void @_ZN4llvm6detail9IEEEFloatC1Ed(ptr noundef nonnull align 8 dereferenceable(24) %4, double noundef %0) #17
  %12 = tail call noundef nonnull align 1 ptr @_ZN4llvm11APFloatBase10IEEEdoubleEv() #20
  call void @_ZN4llvm7APFloat7StorageC1ENS_6detail9IEEEFloatERKNS_12fltSemanticsE(ptr noundef nonnull align 8 dereferenceable(24) %11, ptr noundef nonnull %4, ptr noundef nonnull align 1 %12) #17
  call void @_ZN4llvm6detail9IEEEFloatD1Ev(ptr noundef nonnull align 8 dereferenceable(24) %4) #17
  call void @llvm.lifetime.end.p0(i64 24, ptr nonnull %4)
  %13 = call noundef nonnull align 1 ptr @_ZNK4llvm4Type15getFltSemanticsEv(ptr noundef nonnull align 8 dereferenceable(24) %1) #17
  %14 = call noundef i32 @_ZN4llvm7APFloat7convertERKNS_12fltSemanticsENS_12RoundingModeEPb(ptr noundef nonnull align 8 dereferenceable(32) %5, ptr noundef nonnull align 1 %13, i8 noundef signext 1, ptr noundef nonnull %6) #17
  %15 = load ptr, ptr %1, align 8
  %16 = call noundef ptr @_ZN4llvm10ConstantFP3getERNS_11LLVMContextERKNS_7APFloatE(ptr noundef nonnull align 8 dereferenceable(8) %15, ptr noundef nonnull align 8 dereferenceable(32) %5) #17
  %17 = load ptr, ptr %11, align 8
  %18 = tail call noundef nonnull align 1 ptr @_ZN4llvm11APFloatBase15PPCDoubleDoubleEv() #20
  %.not.i = icmp eq ptr %17, %18
  br i1 %.not.i, label %20, label %19

19:                                               ; preds = %10
  call void @_ZN4llvm6detail9IEEEFloatD1Ev(ptr noundef nonnull align 8 dereferenceable(24) %11) #17
  br label %_ZN4llvm7APFloatD2Ev.exit

20:                                               ; preds = %10
  call void @_ZN4llvm6detail13DoubleAPFloatD2Ev(ptr noundef nonnull align 8 dereferenceable(24) %11) #17
  br label %_ZN4llvm7APFloatD2Ev.exit

21:                                               ; preds = %2
  %22 = and i32 %9, 255
  %23 = icmp eq i32 %22, 3
  tail call void @llvm.assume(i1 %23)
  %24 = load ptr, ptr %1, align 8
  call void @llvm.lifetime.start.p0(i64 24, ptr nonnull %3)
  %25 = getelementptr inbounds nuw i8, ptr %7, i64 8
  call void @_ZN4llvm6detail9IEEEFloatC1Ed(ptr noundef nonnull align 8 dereferenceable(24) %3, double noundef %0) #17
  %26 = tail call noundef nonnull align 1 ptr @_ZN4llvm11APFloatBase10IEEEdoubleEv() #20
  call void @_ZN4llvm7APFloat7StorageC1ENS_6detail9IEEEFloatERKNS_12fltSemanticsE(ptr noundef nonnull align 8 dereferenceable(24) %25, ptr noundef nonnull %3, ptr noundef nonnull align 1 %26) #17
  call void @_ZN4llvm6detail9IEEEFloatD1Ev(ptr noundef nonnull align 8 dereferenceable(24) %3) #17
  call void @llvm.lifetime.end.p0(i64 24, ptr nonnull %3)
  %27 = call noundef ptr @_ZN4llvm10ConstantFP3getERNS_11LLVMContextERKNS_7APFloatE(ptr noundef nonnull align 8 dereferenceable(8) %24, ptr noundef nonnull align 8 dereferenceable(32) %7) #17
  %28 = load ptr, ptr %25, align 8
  %29 = tail call noundef nonnull align 1 ptr @_ZN4llvm11APFloatBase15PPCDoubleDoubleEv() #20
  %.not.i9 = icmp eq ptr %28, %29
  br i1 %.not.i9, label %31, label %30

30:                                               ; preds = %21
  call void @_ZN4llvm6detail9IEEEFloatD1Ev(ptr noundef nonnull align 8 dereferenceable(24) %25) #17
  br label %_ZN4llvm7APFloatD2Ev.exit

31:                                               ; preds = %21
  call void @_ZN4llvm6detail13DoubleAPFloatD2Ev(ptr noundef nonnull align 8 dereferenceable(24) %25) #17
  br label %_ZN4llvm7APFloatD2Ev.exit

_ZN4llvm7APFloatD2Ev.exit:                        ; preds = %31, %30, %20, %19
  %.0 = phi ptr [ %16, %19 ], [ %16, %20 ], [ %27, %30 ], [ %27, %31 ]
  ret ptr %.0
}